; Function Attrs: mustprogress nounwind uwtable
define hidden void @_ZNK13ObjectMonitor5printEv(ptr noundef nonnull align 8 dereferenceable(200) %0) local_unnamed_addr #0 align 2 {
  %2 = load ptr, ptr @tty, align 8
  %3 = getelementptr inbounds i8, ptr %0, i64 180
  %4 = load volatile i32, ptr %3, align 4
  %5 = getelementptr inbounds i8, ptr %0, i64 192
  %6 = load volatile i32, ptr %5, align 8
  %7 = getelementptr inbounds i8, ptr %0, i64 136
  %8 = load volatile i64, ptr %7, align 8
  %9 = getelementptr inbounds i8, ptr %0, i64 64
  %10 = load volatile ptr, ptr %9, align 8
  %.not.i.i = icmp eq ptr %10, inttoptr (i64 2 to ptr)
  %11 = select i1 %.not.i.i, ptr null, ptr %10
  %12 = ptrtoint ptr %11 to i64
  tail call void (ptr, ptr, ...) @_ZN12outputStream5printEPKcz(ptr noundef nonnull align 8 dereferenceable(56) %2, ptr noundef nonnull @.str.45, i32 noundef %4, i32 noundef %6, i64 noundef %8, i64 noundef %12) #12
  ret void
}